; Function Attrs: nounwind uwtable
define zeroext range(i8 0, 2) i8 @l_Lean_Elab_Tactic_BVDecide_Frontend_Normalize_Op_isSameKind___rarg(ptr noundef %0) local_unnamed_addr #0 {
  %2 = tail call ptr @l_Lean_Elab_Tactic_BVDecide_Frontend_Normalize_Op_ofExpr_x3f(ptr noundef %0)
  %3 = ptrtoint ptr %2 to i64
  %4 = and i64 %3, 1
  %.not.i5 = icmp eq i64 %4, 0
  br i1 %.not.i5, label %lean_obj_tag.exit.thread, label %lean_obj_tag.exit

lean_obj_tag.exit:                                ; preds = %1
  %5 = and i64 %3, 8589934590
  %6 = icmp ne i64 %5, 0
  %spec.select = zext i1 %6 to i8
  br label %lean_dec.exit

lean_obj_tag.exit.thread:                         ; preds = %1
  %7 = getelementptr i8, ptr %2, i64 4
  %.val.i = load i32, ptr %7, align 4
  %8 = icmp ult i32 %.val.i, 16777216
  br i1 %8, label %lean_dec.exit, label %.thread

.thread:                                          ; preds = %lean_obj_tag.exit.thread
  %9 = load i32, ptr %2, align 4, !tbaa !8
  %10 = icmp sgt i32 %9, 1
  br i1 %10, label %11, label %13, !prof !11

11:                                               ; preds = %.thread
  %12 = add nsw i32 %9, -1
  store i32 %12, ptr %2, align 4, !tbaa !8
  br label %lean_dec.exit

13:                                               ; preds = %.thread
  %.not.i = icmp eq i32 %9, 0
  br i1 %.not.i, label %lean_dec.exit, label %14

14:                                               ; preds = %13
  tail call void @lean_dec_ref_cold(ptr noundef nonnull %2) #5
  br label %lean_dec.exit

lean_dec.exit:                                    ; preds = %lean_obj_tag.exit, %11, %13, %14, %lean_obj_tag.exit.thread
  %.0 = phi i8 [ 0, %lean_obj_tag.exit.thread ], [ 1, %14 ], [ 1, %13 ], [ 1, %11 ], [ %spec.select, %lean_obj_tag.exit ]
  ret i8 %.0
}